; Function Attrs: null_pointer_is_valid sspstrong uwtable
define ptr @ws_escape_csv(ptr noundef %0, ptr noundef readonly captures(none) %1, i1 noundef zeroext %2, i8 noundef signext %3, i1 noundef zeroext %4, i1 noundef zeroext %5) local_unnamed_addr #0 {
  %7 = tail call i64 @strlen(ptr noundef readonly %1) #24
  %8 = add i64 %7, 2
  %spec.select.i = select i1 %2, i64 %8, i64 %7
  %9 = tail call noalias ptr @wmem_strbuf_new_sized(ptr noundef %0, i64 noundef %spec.select.i)
  %10 = icmp ne i8 %3, 0
  %or.cond.i = and i1 %2, %10
  br i1 %5, label %11, label %54

11:                                               ; preds = %6
  br i1 %or.cond.i, label %12, label %13

12:                                               ; preds = %11
  tail call void @wmem_strbuf_append_c(ptr noundef %9, i8 noundef signext %3)
  br label %13

13:                                               ; preds = %12, %11
  %14 = icmp sgt i64 %7, 0
  br i1 %14, label %.lr.ph.i, label %._crit_edge.i

.lr.ph.i:                                         ; preds = %13
  br i1 %10, label %.lr.ph.split.i, label %.lr.ph.split.us.i

.lr.ph.split.us.i:                                ; preds = %.lr.ph.i, %escape_char.exit35
  %.056.us.i = phi i64 [ %26, %escape_char.exit35 ], [ 0, %.lr.ph.i ]
  %15 = getelementptr i8, ptr %1, i64 %.056.us.i
  %16 = load i8, ptr %15, align 1
  switch i8 %16, label %escape_char.exit35 [
    i8 7, label %24
    i8 8, label %25
    i8 12, label %17
    i8 10, label %18
    i8 13, label %19
    i8 9, label %20
    i8 11, label %21
    i8 92, label %22
    i8 0, label %23
  ]

17:                                               ; preds = %.lr.ph.split.us.i
  br label %25

18:                                               ; preds = %.lr.ph.split.us.i
  br label %25

19:                                               ; preds = %.lr.ph.split.us.i
  br label %25

20:                                               ; preds = %.lr.ph.split.us.i
  br label %25

21:                                               ; preds = %.lr.ph.split.us.i
  br label %25

22:                                               ; preds = %.lr.ph.split.us.i
  br label %25

23:                                               ; preds = %.lr.ph.split.us.i
  br label %25

24:                                               ; preds = %.lr.ph.split.us.i
  br label %25

25:                                               ; preds = %.lr.ph.split.us.i, %23, %22, %21, %20, %19, %18, %17, %24
  %.5.ph = phi i8 [ 97, %24 ], [ 48, %23 ], [ 92, %22 ], [ 118, %21 ], [ 116, %20 ], [ 114, %19 ], [ 110, %18 ], [ 102, %17 ], [ 98, %.lr.ph.split.us.i ]
  tail call void @wmem_strbuf_append_c(ptr noundef %9, i8 noundef signext 92)
  br label %escape_char.exit35

escape_char.exit35:                               ; preds = %.lr.ph.split.us.i, %25
  %.sink.i = phi i8 [ %.5.ph, %25 ], [ %16, %.lr.ph.split.us.i ]
  tail call void @wmem_strbuf_append_c(ptr noundef %9, i8 noundef signext %.sink.i)
  %26 = add nuw nsw i64 %.056.us.i, 1
  %exitcond.not.i = icmp eq i64 %26, %7
  br i1 %exitcond.not.i, label %._crit_edge.i, label %.lr.ph.split.us.i, !llvm.loop !27

.lr.ph.split.i:                                   ; preds = %.lr.ph.i
  br i1 %4, label %.lr.ph.split.split.us.i, label %.lr.ph.split.split.i

.lr.ph.split.split.us.i:                          ; preds = %.lr.ph.split.i, %38
  %.056.us57.i = phi i64 [ %39, %38 ], [ 0, %.lr.ph.split.i ]
  %27 = getelementptr i8, ptr %1, i64 %.056.us57.i
  %28 = load i8, ptr %27, align 1
  switch i8 %28, label %escape_char.exit32 [
    i8 7, label %36
    i8 8, label %.sink.split
    i8 12, label %29
    i8 10, label %30
    i8 13, label %31
    i8 9, label %32
    i8 11, label %33
    i8 92, label %34
    i8 0, label %35
  ]

29:                                               ; preds = %.lr.ph.split.split.us.i
  br label %.sink.split

30:                                               ; preds = %.lr.ph.split.split.us.i
  br label %.sink.split

31:                                               ; preds = %.lr.ph.split.split.us.i
  br label %.sink.split

32:                                               ; preds = %.lr.ph.split.split.us.i
  br label %.sink.split

33:                                               ; preds = %.lr.ph.split.split.us.i
  br label %.sink.split

34:                                               ; preds = %.lr.ph.split.split.us.i
  br label %.sink.split

35:                                               ; preds = %.lr.ph.split.split.us.i
  br label %.sink.split

36:                                               ; preds = %.lr.ph.split.split.us.i
  br label %.sink.split

escape_char.exit32:                               ; preds = %.lr.ph.split.split.us.i
  %37 = icmp eq i8 %28, %3
  br i1 %37, label %.sink.split, label %38

.sink.split:                                      ; preds = %36, %29, %30, %31, %32, %33, %34, %35, %.lr.ph.split.split.us.i, %escape_char.exit32
  %.sink = phi i8 [ %3, %escape_char.exit32 ], [ 92, %.lr.ph.split.split.us.i ], [ 92, %35 ], [ 92, %34 ], [ 92, %33 ], [ 92, %32 ], [ 92, %31 ], [ 92, %30 ], [ 92, %29 ], [ 92, %36 ]
  %.sink66.i.ph = phi i8 [ %3, %escape_char.exit32 ], [ 98, %.lr.ph.split.split.us.i ], [ 48, %35 ], [ 92, %34 ], [ 118, %33 ], [ 116, %32 ], [ 114, %31 ], [ 110, %30 ], [ 102, %29 ], [ 97, %36 ]
  tail call void @wmem_strbuf_append_c(ptr noundef %9, i8 noundef signext %.sink)
  br label %38

38:                                               ; preds = %.sink.split, %escape_char.exit32
  %.sink66.i = phi i8 [ %28, %escape_char.exit32 ], [ %.sink66.i.ph, %.sink.split ]
  tail call void @wmem_strbuf_append_c(ptr noundef %9, i8 noundef signext %.sink66.i)
  %39 = add nuw nsw i64 %.056.us57.i, 1
  %exitcond63.not.i = icmp eq i64 %39, %7
  br i1 %exitcond63.not.i, label %._crit_edge.i, label %.lr.ph.split.split.us.i, !llvm.loop !27

.lr.ph.split.split.i:                             ; preds = %.lr.ph.split.i, %52
  %.056.i = phi i64 [ %53, %52 ], [ 0, %.lr.ph.split.i ]
  %40 = getelementptr i8, ptr %1, i64 %.056.i
  %41 = load i8, ptr %40, align 1
  switch i8 %41, label %escape_char.exit [
    i8 7, label %49
    i8 8, label %.sink.split83
    i8 12, label %42
    i8 10, label %43
    i8 13, label %44
    i8 9, label %45
    i8 11, label %46
    i8 92, label %47
    i8 0, label %48
  ]

42:                                               ; preds = %.lr.ph.split.split.i
  br label %.sink.split83

43:                                               ; preds = %.lr.ph.split.split.i
  br label %.sink.split83

44:                                               ; preds = %.lr.ph.split.split.i
  br label %.sink.split83

45:                                               ; preds = %.lr.ph.split.split.i
  br label %.sink.split83

46:                                               ; preds = %.lr.ph.split.split.i
  br label %.sink.split83

47:                                               ; preds = %.lr.ph.split.split.i
  br label %.sink.split83

48:                                               ; preds = %.lr.ph.split.split.i
  br label %.sink.split83

49:                                               ; preds = %.lr.ph.split.split.i
  br label %.sink.split83

escape_char.exit:                                 ; preds = %.lr.ph.split.split.i
  %50 = icmp eq i8 %41, %3
  br i1 %50, label %.sink.split83, label %51

51:                                               ; preds = %escape_char.exit
  %.not.i = icmp eq i8 %41, 92
  br i1 %.not.i, label %.sink.split83, label %52

.sink.split83:                                    ; preds = %51, %escape_char.exit, %49, %42, %43, %44, %45, %46, %47, %48, %.lr.ph.split.split.i
  %.sink67.i.ph = phi i8 [ 97, %49 ], [ 48, %48 ], [ 92, %47 ], [ 118, %46 ], [ 116, %45 ], [ 114, %44 ], [ 110, %43 ], [ 102, %42 ], [ 98, %.lr.ph.split.split.i ], [ %3, %escape_char.exit ], [ 92, %51 ]
  tail call void @wmem_strbuf_append_c(ptr noundef %9, i8 noundef signext 92)
  br label %52

52:                                               ; preds = %.sink.split83, %51
  %.sink67.i = phi i8 [ %41, %51 ], [ %.sink67.i.ph, %.sink.split83 ]
  tail call void @wmem_strbuf_append_c(ptr noundef %9, i8 noundef signext %.sink67.i)
  %53 = add nuw nsw i64 %.056.i, 1
  %exitcond62.not.i = icmp eq i64 %53, %7
  br i1 %exitcond62.not.i, label %._crit_edge.i, label %.lr.ph.split.split.i, !llvm.loop !27

._crit_edge.i:                                    ; preds = %escape_char.exit35, %52, %38, %13
  br i1 %or.cond.i, label %escape_string_len.exit.sink.split, label %escape_string_len.exit

54:                                               ; preds = %6
  br i1 %or.cond.i, label %55, label %56

55:                                               ; preds = %54
  tail call void @wmem_strbuf_append_c(ptr noundef %9, i8 noundef signext %3)
  br label %56

56:                                               ; preds = %55, %54
  %57 = icmp sgt i64 %7, 0
  br i1 %57, label %.lr.ph.i14, label %._crit_edge.i13

.lr.ph.i14:                                       ; preds = %56
  br i1 %10, label %.lr.ph.split.i19, label %.lr.ph.split.us.i15

.lr.ph.split.us.i15:                              ; preds = %.lr.ph.i14, %escape_null.exit37
  %.056.us.i16 = phi i64 [ %62, %escape_null.exit37 ], [ 0, %.lr.ph.i14 ]
  %58 = getelementptr i8, ptr %1, i64 %.056.us.i16
  %59 = load i8, ptr %58, align 1
  %60 = icmp eq i8 %59, 0
  br i1 %60, label %61, label %escape_null.exit37

61:                                               ; preds = %.lr.ph.split.us.i15
  tail call void @wmem_strbuf_append_c(ptr noundef %9, i8 noundef signext 92)
  br label %escape_null.exit37

escape_null.exit37:                               ; preds = %.lr.ph.split.us.i15, %61
  %.sink.i17 = phi i8 [ 48, %61 ], [ %59, %.lr.ph.split.us.i15 ]
  tail call void @wmem_strbuf_append_c(ptr noundef %9, i8 noundef signext %.sink.i17)
  %62 = add nuw nsw i64 %.056.us.i16, 1
  %exitcond.not.i18 = icmp eq i64 %62, %7
  br i1 %exitcond.not.i18, label %._crit_edge.i13, label %.lr.ph.split.us.i15, !llvm.loop !27

.lr.ph.split.i19:                                 ; preds = %.lr.ph.i14
  br i1 %4, label %.lr.ph.split.split.us.i25, label %.lr.ph.split.split.i20

.lr.ph.split.split.us.i25:                        ; preds = %.lr.ph.split.i19, %67
  %.056.us57.i26 = phi i64 [ %68, %67 ], [ 0, %.lr.ph.split.i19 ]
  %63 = getelementptr i8, ptr %1, i64 %.056.us57.i26
  %64 = load i8, ptr %63, align 1
  %65 = icmp eq i8 %64, 0
  br i1 %65, label %.sink.split84, label %escape_null.exit36

escape_null.exit36:                               ; preds = %.lr.ph.split.split.us.i25
  %66 = icmp eq i8 %64, %3
  br i1 %66, label %.sink.split84, label %67

.sink.split84:                                    ; preds = %.lr.ph.split.split.us.i25, %escape_null.exit36
  %.sink85 = phi i8 [ %3, %escape_null.exit36 ], [ 92, %.lr.ph.split.split.us.i25 ]
  %.sink66.i27.ph = phi i8 [ %3, %escape_null.exit36 ], [ 48, %.lr.ph.split.split.us.i25 ]
  tail call void @wmem_strbuf_append_c(ptr noundef %9, i8 noundef signext %.sink85)
  br label %67

67:                                               ; preds = %.sink.split84, %escape_null.exit36
  %.sink66.i27 = phi i8 [ %64, %escape_null.exit36 ], [ %.sink66.i27.ph, %.sink.split84 ]
  tail call void @wmem_strbuf_append_c(ptr noundef %9, i8 noundef signext %.sink66.i27)
  %68 = add nuw nsw i64 %.056.us57.i26, 1
  %exitcond63.not.i28 = icmp eq i64 %68, %7
  br i1 %exitcond63.not.i28, label %._crit_edge.i13, label %.lr.ph.split.split.us.i25, !llvm.loop !27

.lr.ph.split.split.i20:                           ; preds = %.lr.ph.split.i19, %74
  %.056.i21 = phi i64 [ %75, %74 ], [ 0, %.lr.ph.split.i19 ]
  %69 = getelementptr i8, ptr %1, i64 %.056.i21
  %70 = load i8, ptr %69, align 1
  %71 = icmp eq i8 %70, 0
  br i1 %71, label %.sink.split86, label %escape_null.exit

escape_null.exit:                                 ; preds = %.lr.ph.split.split.i20
  %72 = icmp eq i8 %70, %3
  br i1 %72, label %.sink.split86, label %73

73:                                               ; preds = %escape_null.exit
  %.not.i22 = icmp eq i8 %70, 92
  br i1 %.not.i22, label %.sink.split86, label %74

.sink.split86:                                    ; preds = %73, %escape_null.exit, %.lr.ph.split.split.i20
  %.sink67.i23.ph = phi i8 [ 48, %.lr.ph.split.split.i20 ], [ %3, %escape_null.exit ], [ 92, %73 ]
  tail call void @wmem_strbuf_append_c(ptr noundef %9, i8 noundef signext 92)
  br label %74

74:                                               ; preds = %.sink.split86, %73
  %.sink67.i23 = phi i8 [ %70, %73 ], [ %.sink67.i23.ph, %.sink.split86 ]
  tail call void @wmem_strbuf_append_c(ptr noundef %9, i8 noundef signext %.sink67.i23)
  %75 = add nuw nsw i64 %.056.i21, 1
  %exitcond62.not.i24 = icmp eq i64 %75, %7
  br i1 %exitcond62.not.i24, label %._crit_edge.i13, label %.lr.ph.split.split.i20, !llvm.loop !27

._crit_edge.i13:                                  ; preds = %escape_null.exit37, %74, %67, %56
  br i1 %or.cond.i, label %escape_string_len.exit.sink.split, label %escape_string_len.exit

escape_string_len.exit.sink.split:                ; preds = %._crit_edge.i13, %._crit_edge.i
  tail call void @wmem_strbuf_append_c(ptr noundef %9, i8 noundef signext %3)
  br label %escape_string_len.exit

escape_string_len.exit:                           ; preds = %escape_string_len.exit.sink.split, %._crit_edge.i13, %._crit_edge.i
  %76 = tail call ptr @wmem_strbuf_finalize(ptr noundef %9)
  ret ptr %76
}